; Function Attrs: mustprogress nounwind uwtable
define dso_local void @_ZN13btGhostObjectD0Ev(ptr noundef nonnull align 8 dereferenceable(408) %this) unnamed_addr #3 align 2 personality ptr @__gxx_personality_v0 {
entry:
  store ptr getelementptr inbounds ({ [11 x ptr] }, ptr @_ZTV13btGhostObject, i64 0, i32 0, i64 2), ptr %this, align 8
  %m_data.i.i.i.i = getelementptr inbounds i8, ptr %this, i64 392
  %0 = load ptr, ptr %m_data.i.i.i.i, align 8
  %tobool.not.i.i.i.i = icmp eq ptr %0, null
  br i1 %tobool.not.i.i.i.i, label %_ZN13btGhostObjectD2Ev.exit, label %if.then.i.i.i.i

if.then.i.i.i.i:                                  ; preds = %entry
  %m_ownsMemory.i.i.i.i = getelementptr inbounds i8, ptr %this, i64 400
  %1 = load i8, ptr %m_ownsMemory.i.i.i.i, align 8
  %2 = and i8 %1, 1
  %tobool2.not.i.i.i.i = icmp eq i8 %2, 0
  br i1 %tobool2.not.i.i.i.i, label %_ZN13btGhostObjectD2Ev.exit, label %if.then3.i.i.i.i

if.then3.i.i.i.i:                                 ; preds = %if.then.i.i.i.i
  invoke void @_Z21btAlignedFreeInternalPv(ptr noundef nonnull %0)
          to label %_ZN13btGhostObjectD2Ev.exit unwind label %terminate.lpad.i.i

terminate.lpad.i.i:                               ; preds = %if.then3.i.i.i.i
  %3 = landingpad { ptr, i32 }
          catch ptr null
  %4 = extractvalue { ptr, i32 } %3, 0
  tail call void @__clang_call_terminate(ptr %4) #14
  unreachable

_ZN13btGhostObjectD2Ev.exit:                      ; preds = %entry, %if.then.i.i.i.i, %if.then3.i.i.i.i
  %m_size.i.i.i.i = getelementptr inbounds i8, ptr %this, i64 380
  %m_ownsMemory.i1.i.i.i = getelementptr inbounds i8, ptr %this, i64 400
  store i8 1, ptr %m_ownsMemory.i1.i.i.i, align 8
  store ptr null, ptr %m_data.i.i.i.i, align 8
  store i32 0, ptr %m_size.i.i.i.i, align 4
  %m_capacity.i.i.i.i = getelementptr inbounds i8, ptr %this, i64 384
  store i32 0, ptr %m_capacity.i.i.i.i, align 8
  tail call void @_ZN17btCollisionObjectD2Ev(ptr noundef nonnull align 8 dereferenceable(372) %this) #15
  invoke void @_Z21btAlignedFreeInternalPv(ptr noundef nonnull %this)
          to label %_ZN17btCollisionObjectdlEPv.exit unwind label %terminate.lpad.i

terminate.lpad.i:                                 ; preds = %_ZN13btGhostObjectD2Ev.exit
  %5 = landingpad { ptr, i32 }
          catch ptr null
  %6 = extractvalue { ptr, i32 } %5, 0
  tail call void @__clang_call_terminate(ptr %6) #14
  unreachable

_ZN17btCollisionObjectdlEPv.exit:                 ; preds = %_ZN13btGhostObjectD2Ev.exit
  ret void
}